target datalayout = "e-m:e-p270:32:32-p271:32:32-p272:64:64-i64:64-i128:128-f80:128-n8:16:32:64-S128"
target triple = "x86_64-pc-linux-gnu"

%struct.Ladder = type { i8, i8, i8, i8 }
%struct.ElsDecCtx = type { ptr, i32, i64, i32, i32, i32, i32 }

; Function Attrs: nounwind uwtable
define i32 @ff_els_decode_bit(ptr noundef %0, ptr noundef %1) #0 {
  %3 = alloca i32, align 4
  %4 = alloca ptr, align 8
  %5 = alloca ptr, align 8
  %6 = alloca i32, align 4
  %7 = alloca i32, align 4
  %8 = alloca i32, align 4
  %9 = alloca ptr, align 8
  %10 = alloca i32, align 4
  store ptr %0, ptr %4, align 8, !tbaa !4
  store ptr %1, ptr %5, align 8, !tbaa !9
  call void @llvm.lifetime.start.p0(i64 4, ptr %6) #5
  call void @llvm.lifetime.start.p0(i64 4, ptr %7) #5
  call void @llvm.lifetime.start.p0(i64 4, ptr %8) #5
  call void @llvm.lifetime.start.p0(i64 8, ptr %9) #5
  store ptr getelementptr inbounds ([145 x i32], ptr @els_exp_tab, i64 0, i64 108), ptr %9, align 8, !tbaa !28
  %11 = load ptr, ptr %4, align 8, !tbaa !4
  %12 = getelementptr inbounds nuw %struct.ElsDecCtx, ptr %11, i32 0, i32 6
  %13 = load i32, ptr %12, align 4, !tbaa !20
  %14 = icmp ne i32 %13, 0
  br i1 %14, label %15, label %16

15:                                               ; preds = %2
  store i32 0, ptr %3, align 4
  store i32 1, ptr %10, align 4
  br label %238

16:                                               ; preds = %2
  %17 = load ptr, ptr %9, align 8, !tbaa !28
  %18 = load ptr, ptr %4, align 8, !tbaa !4
  %19 = getelementptr inbounds nuw %struct.ElsDecCtx, ptr %18, i32 0, i32 3
  %20 = load i32, ptr %19, align 8, !tbaa !21
  %21 = load ptr, ptr %5, align 8, !tbaa !9
  %22 = load i8, ptr %21, align 1, !tbaa !13
  %23 = zext i8 %22 to i64
  %24 = getelementptr inbounds nuw [174 x %struct.Ladder], ptr @Ladder, i64 0, i64 %23
  %25 = getelementptr inbounds nuw %struct.Ladder, ptr %24, i32 0, i32 1
  %26 = load i8, ptr %25, align 1, !tbaa !30
  %27 = sext i8 %26 to i32
  %28 = add nsw i32 %20, %27
  %29 = sext i32 %28 to i64
  %30 = getelementptr inbounds i32, ptr %17, i64 %29
  %31 = load i32, ptr %30, align 4, !tbaa !17
  store i32 %31, ptr %6, align 4, !tbaa !17
  %32 = load i32, ptr %6, align 4, !tbaa !17
  %33 = load ptr, ptr %4, align 8, !tbaa !4
  %34 = getelementptr inbounds nuw %struct.ElsDecCtx, ptr %33, i32 0, i32 4
  %35 = load i32, ptr %34, align 4, !tbaa !22
  %36 = sub nsw i32 %35, %32
  store i32 %36, ptr %34, align 4, !tbaa !22
  %37 = load i32, ptr %6, align 4, !tbaa !17
  %38 = load ptr, ptr %4, align 8, !tbaa !4
  %39 = getelementptr inbounds nuw %struct.ElsDecCtx, ptr %38, i32 0, i32 5
  %40 = load i32, ptr %39, align 8, !tbaa !23
  %41 = sub nsw i32 %40, %37
  store i32 %41, ptr %39, align 8, !tbaa !23
  %42 = load ptr, ptr %4, align 8, !tbaa !4
  %43 = getelementptr inbounds nuw %struct.ElsDecCtx, ptr %42, i32 0, i32 5
  %44 = load i32, ptr %43, align 8, !tbaa !23
  %45 = icmp sgt i32 %44, 0
  br i1 %45, label %46, label %51

46:                                               ; preds = %16
  %47 = load ptr, ptr %5, align 8, !tbaa !9
  %48 = load i8, ptr %47, align 1, !tbaa !13
  %49 = zext i8 %48 to i32
  %50 = and i32 %49, 1
  store i32 %50, ptr %3, align 4
  store i32 1, ptr %10, align 4
  br label %238

51:                                               ; preds = %16
  %52 = load ptr, ptr %4, align 8, !tbaa !4
  %53 = getelementptr inbounds nuw %struct.ElsDecCtx, ptr %52, i32 0, i32 4
  %54 = load i32, ptr %53, align 4, !tbaa !22
  %55 = load ptr, ptr %4, align 8, !tbaa !4
  %56 = getelementptr inbounds nuw %struct.ElsDecCtx, ptr %55, i32 0, i32 1
  %57 = load i32, ptr %56, align 8, !tbaa !14
  %58 = icmp ugt i32 %54, %57
  br i1 %58, label %59, label %116

59:                                               ; preds = %51
  %60 = load ptr, ptr %5, align 8, !tbaa !9
  %61 = load i8, ptr %60, align 1, !tbaa !13
  %62 = zext i8 %61 to i64
  %63 = getelementptr inbounds nuw [174 x %struct.Ladder], ptr @Ladder, i64 0, i64 %62
  %64 = getelementptr inbounds nuw %struct.Ladder, ptr %63, i32 0, i32 0
  %65 = load i8, ptr %64, align 4, !tbaa !32
  %66 = sext i8 %65 to i32
  %67 = load ptr, ptr %4, align 8, !tbaa !4
  %68 = getelementptr inbounds nuw %struct.ElsDecCtx, ptr %67, i32 0, i32 3
  %69 = load i32, ptr %68, align 8, !tbaa !21
  %70 = add nsw i32 %69, %66
  store i32 %70, ptr %68, align 8, !tbaa !21
  br label %71

71:                                               ; preds = %83, %59
  %72 = load ptr, ptr %4, align 8, !tbaa !4
  %73 = getelementptr inbounds nuw %struct.ElsDecCtx, ptr %72, i32 0, i32 4
  %74 = load i32, ptr %73, align 4, !tbaa !22
  %75 = load ptr, ptr %9, align 8, !tbaa !28
  %76 = load ptr, ptr %4, align 8, !tbaa !4
  %77 = getelementptr inbounds nuw %struct.ElsDecCtx, ptr %76, i32 0, i32 3
  %78 = load i32, ptr %77, align 8, !tbaa !21
  %79 = sext i32 %78 to i64
  %80 = getelementptr inbounds i32, ptr %75, i64 %79
  %81 = load i32, ptr %80, align 4, !tbaa !17
  %82 = icmp ugt i32 %74, %81
  br i1 %82, label %83, label %88

83:                                               ; preds = %71
  %84 = load ptr, ptr %4, align 8, !tbaa !4
  %85 = getelementptr inbounds nuw %struct.ElsDecCtx, ptr %84, i32 0, i32 3
  %86 = load i32, ptr %85, align 8, !tbaa !21
  %87 = add nsw i32 %86, 1
  store i32 %87, ptr %85, align 8, !tbaa !21
  br label %71, !llvm.loop !33

88:                                               ; preds = %71
  %89 = load ptr, ptr %4, align 8, !tbaa !4
  %90 = getelementptr inbounds nuw %struct.ElsDecCtx, ptr %89, i32 0, i32 3
  %91 = load i32, ptr %90, align 8, !tbaa !21
  %92 = icmp sle i32 %91, 0
  br i1 %92, label %93, label %101

93:                                               ; preds = %88
  %94 = load ptr, ptr %4, align 8, !tbaa !4
  %95 = call i32 @els_import_byte(ptr noundef %94)
  store i32 %95, ptr %8, align 4, !tbaa !17
  %96 = load i32, ptr %8, align 4, !tbaa !17
  %97 = icmp slt i32 %96, 0
  br i1 %97, label %98, label %100

98:                                               ; preds = %93
  %99 = load i32, ptr %8, align 4, !tbaa !17
  store i32 %99, ptr %3, align 4
  store i32 1, ptr %10, align 4
  br label %238

100:                                              ; preds = %93
  br label %101

101:                                              ; preds = %100, %88
  %102 = load ptr, ptr %4, align 8, !tbaa !4
  %103 = getelementptr inbounds nuw %struct.ElsDecCtx, ptr %102, i32 0, i32 4
  %104 = load i32, ptr %103, align 4, !tbaa !22
  store i32 %104, ptr %6, align 4, !tbaa !17
  %105 = load ptr, ptr %5, align 8, !tbaa !9
  %106 = load i8, ptr %105, align 1, !tbaa !13
  %107 = zext i8 %106 to i32
  %108 = and i32 %107, 1
  store i32 %108, ptr %7, align 4, !tbaa !17
  %109 = load ptr, ptr %5, align 8, !tbaa !9
  %110 = load i8, ptr %109, align 1, !tbaa !13
  %111 = zext i8 %110 to i64
  %112 = getelementptr inbounds nuw [174 x %struct.Ladder], ptr @Ladder, i64 0, i64 %111
  %113 = getelementptr inbounds nuw %struct.Ladder, ptr %112, i32 0, i32 2
  %114 = load i8, ptr %113, align 2, !tbaa !35
  %115 = load ptr, ptr %5, align 8, !tbaa !9
  store i8 %114, ptr %115, align 1, !tbaa !13
  br label %199

116:                                              ; preds = %51
  %117 = load ptr, ptr %4, align 8, !tbaa !4
  %118 = getelementptr inbounds nuw %struct.ElsDecCtx, ptr %117, i32 0, i32 4
  %119 = load i32, ptr %118, align 4, !tbaa !22
  %120 = load ptr, ptr %4, align 8, !tbaa !4
  %121 = getelementptr inbounds nuw %struct.ElsDecCtx, ptr %120, i32 0, i32 1
  %122 = load i32, ptr %121, align 8, !tbaa !14
  %123 = sub i32 %122, %119
  store i32 %123, ptr %121, align 8, !tbaa !14
  %124 = load i32, ptr %6, align 4, !tbaa !17
  %125 = load ptr, ptr %4, align 8, !tbaa !4
  %126 = getelementptr inbounds nuw %struct.ElsDecCtx, ptr %125, i32 0, i32 4
  store i32 %124, ptr %126, align 4, !tbaa !22
  %127 = load ptr, ptr %5, align 8, !tbaa !9
  %128 = load i8, ptr %127, align 1, !tbaa !13
  %129 = zext i8 %128 to i64
  %130 = getelementptr inbounds nuw [174 x %struct.Ladder], ptr @Ladder, i64 0, i64 %129
  %131 = getelementptr inbounds nuw %struct.Ladder, ptr %130, i32 0, i32 1
  %132 = load i8, ptr %131, align 1, !tbaa !30
  %133 = sext i8 %132 to i32
  %134 = load ptr, ptr %4, align 8, !tbaa !4
  %135 = getelementptr inbounds nuw %struct.ElsDecCtx, ptr %134, i32 0, i32 3
  %136 = load i32, ptr %135, align 8, !tbaa !21
  %137 = add nsw i32 %136, %133
  store i32 %137, ptr %135, align 8, !tbaa !21
  %138 = load ptr, ptr %4, align 8, !tbaa !4
  %139 = getelementptr inbounds nuw %struct.ElsDecCtx, ptr %138, i32 0, i32 3
  %140 = load i32, ptr %139, align 8, !tbaa !21
  %141 = icmp sle i32 %140, 0
  br i1 %141, label %142, label %184

142:                                              ; preds = %116
  %143 = load i32, ptr %6, align 4, !tbaa !17
  %144 = shl i32 %143, 8
  store i32 %144, ptr %6, align 4, !tbaa !17
  %145 = load ptr, ptr %4, align 8, !tbaa !4
  %146 = call i32 @els_import_byte(ptr noundef %145)
  store i32 %146, ptr %8, align 4, !tbaa !17
  %147 = load i32, ptr %8, align 4, !tbaa !17
  %148 = icmp slt i32 %147, 0
  br i1 %148, label %149, label %151

149:                                              ; preds = %142
  %150 = load i32, ptr %8, align 4, !tbaa !17
  store i32 %150, ptr %3, align 4
  store i32 1, ptr %10, align 4
  br label %238

151:                                              ; preds = %142
  %152 = load ptr, ptr %4, align 8, !tbaa !4
  %153 = getelementptr inbounds nuw %struct.ElsDecCtx, ptr %152, i32 0, i32 3
  %154 = load i32, ptr %153, align 8, !tbaa !21
  %155 = icmp sle i32 %154, 0
  br i1 %155, label %156, label %183

156:                                              ; preds = %151
  %157 = load i32, ptr %6, align 4, !tbaa !17
  %158 = shl i32 %157, 8
  store i32 %158, ptr %6, align 4, !tbaa !17
  %159 = load ptr, ptr %4, align 8, !tbaa !4
  %160 = call i32 @els_import_byte(ptr noundef %159)
  store i32 %160, ptr %8, align 4, !tbaa !17
  %161 = load i32, ptr %8, align 4, !tbaa !17
  %162 = icmp slt i32 %161, 0
  br i1 %162, label %163, label %165

163:                                              ; preds = %156
  %164 = load i32, ptr %8, align 4, !tbaa !17
  store i32 %164, ptr %3, align 4
  store i32 1, ptr %10, align 4
  br label %238

165:                                              ; preds = %156
  br label %166

166:                                              ; preds = %177, %165
  %167 = load ptr, ptr %9, align 8, !tbaa !28
  %168 = load ptr, ptr %4, align 8, !tbaa !4
  %169 = getelementptr inbounds nuw %struct.ElsDecCtx, ptr %168, i32 0, i32 3
  %170 = load i32, ptr %169, align 8, !tbaa !21
  %171 = sub nsw i32 %170, 1
  %172 = sext i32 %171 to i64
  %173 = getelementptr inbounds i32, ptr %167, i64 %172
  %174 = load i32, ptr %173, align 4, !tbaa !17
  %175 = load i32, ptr %6, align 4, !tbaa !17
  %176 = icmp uge i32 %174, %175
  br i1 %176, label %177, label %182

177:                                              ; preds = %166
  %178 = load ptr, ptr %4, align 8, !tbaa !4
  %179 = getelementptr inbounds nuw %struct.ElsDecCtx, ptr %178, i32 0, i32 3
  %180 = load i32, ptr %179, align 8, !tbaa !21
  %181 = add nsw i32 %180, -1
  store i32 %181, ptr %179, align 8, !tbaa !21
  br label %166, !llvm.loop !36

182:                                              ; preds = %166
  br label %183

183:                                              ; preds = %182, %151
  br label %184

184:                                              ; preds = %183, %116
  %185 = load ptr, ptr %5, align 8, !tbaa !9
  %186 = load i8, ptr %185, align 1, !tbaa !13
  %187 = zext i8 %186 to i32
  %188 = and i32 %187, 1
  %189 = icmp ne i32 %188, 0
  %190 = xor i1 %189, true
  %191 = zext i1 %190 to i32
  store i32 %191, ptr %7, align 4, !tbaa !17
  %192 = load ptr, ptr %5, align 8, !tbaa !9
  %193 = load i8, ptr %192, align 1, !tbaa !13
  %194 = zext i8 %193 to i64
  %195 = getelementptr inbounds nuw [174 x %struct.Ladder], ptr @Ladder, i64 0, i64 %194
  %196 = getelementptr inbounds nuw %struct.Ladder, ptr %195, i32 0, i32 3
  %197 = load i8, ptr %196, align 1, !tbaa !37
  %198 = load ptr, ptr %5, align 8, !tbaa !9
  store i8 %197, ptr %198, align 1, !tbaa !13
  br label %199

199:                                              ; preds = %184, %101
  %200 = load i32, ptr %6, align 4, !tbaa !17
  %201 = load ptr, ptr %4, align 8, !tbaa !4
  %202 = getelementptr inbounds nuw %struct.ElsDecCtx, ptr %201, i32 0, i32 1
  %203 = load i32, ptr %202, align 8, !tbaa !14
  %204 = sub i32 %200, %203
  %205 = load i32, ptr %6, align 4, !tbaa !17
  %206 = load ptr, ptr %9, align 8, !tbaa !28
  %207 = load ptr, ptr %4, align 8, !tbaa !4
  %208 = getelementptr inbounds nuw %struct.ElsDecCtx, ptr %207, i32 0, i32 3
  %209 = load i32, ptr %208, align 8, !tbaa !21
  %210 = sub nsw i32 %209, 1
  %211 = sext i32 %210 to i64
  %212 = getelementptr inbounds i32, ptr %206, i64 %211
  %213 = load i32, ptr %212, align 4, !tbaa !17
  %214 = sub i32 %205, %213
  %215 = icmp ugt i32 %204, %214
  br i1 %215, label %216, label %227

216:                                              ; preds = %199
  %217 = load i32, ptr %6, align 4, !tbaa !17
  %218 = load ptr, ptr %9, align 8, !tbaa !28
  %219 = load ptr, ptr %4, align 8, !tbaa !4
  %220 = getelementptr inbounds nuw %struct.ElsDecCtx, ptr %219, i32 0, i32 3
  %221 = load i32, ptr %220, align 8, !tbaa !21
  %222 = sub nsw i32 %221, 1
  %223 = sext i32 %222 to i64
  %224 = getelementptr inbounds i32, ptr %218, i64 %223
  %225 = load i32, ptr %224, align 4, !tbaa !17
  %226 = sub i32 %217, %225
  br label %233

227:                                              ; preds = %199
  %228 = load i32, ptr %6, align 4, !tbaa !17
  %229 = load ptr, ptr %4, align 8, !tbaa !4
  %230 = getelementptr inbounds nuw %struct.ElsDecCtx, ptr %229, i32 0, i32 1
  %231 = load i32, ptr %230, align 8, !tbaa !14
  %232 = sub i32 %228, %231
  br label %233

233:                                              ; preds = %227, %216
  %234 = phi i32 [ %226, %216 ], [ %232, %227 ]
  %235 = load ptr, ptr %4, align 8, !tbaa !4
  %236 = getelementptr inbounds nuw %struct.ElsDecCtx, ptr %235, i32 0, i32 5
  store i32 %234, ptr %236, align 8, !tbaa !23
  %237 = load i32, ptr %7, align 4, !tbaa !17
  store i32 %237, ptr %3, align 4
  store i32 1, ptr %10, align 4
  br label %238

238:                                              ; preds = %233, %163, %149, %98, %46, %15
  call void @llvm.lifetime.end.p0(i64 8, ptr %9) #5
  call void @llvm.lifetime.end.p0(i64 4, ptr %8) #5
  call void @llvm.lifetime.end.p0(i64 4, ptr %7) #5
  call void @llvm.lifetime.end.p0(i64 4, ptr %6) #5
  %239 = load i32, ptr %3, align 4
  ret i32 %239
}