; Function Attrs: nofree norecurse nosync nounwind memory(read, argmem: readwrite, inaccessiblemem: none) uwtable
define range(i32 -541478725, 2) i32 @ff_els_decode_bit(ptr noundef captures(none) %0, ptr noundef captures(none) %1) local_unnamed_addr #3 {
  %3 = getelementptr inbounds nuw i8, ptr %0, i64 36
  %4 = load i32, ptr %3, align 4, !tbaa !15
  %.not = icmp eq i32 %4, 0
  br i1 %.not, label %5, label %110

5:                                                ; preds = %2
  %6 = getelementptr inbounds nuw i8, ptr %0, i64 24
  %7 = load i32, ptr %6, align 8, !tbaa !16
  %8 = load i8, ptr %1, align 1, !tbaa !4
  %9 = zext i8 %8 to i64
  %10 = getelementptr inbounds nuw [174 x %struct.Ladder], ptr @Ladder, i64 0, i64 %9, i32 1
  %11 = load i8, ptr %10, align 1, !tbaa !19
  %12 = sext i8 %11 to i32
  %13 = add nsw i32 %7, %12
  %14 = sext i32 %13 to i64
  %15 = getelementptr inbounds i32, ptr getelementptr inbounds nuw (i8, ptr @els_exp_tab, i64 432), i64 %14
  %16 = load i32, ptr %15, align 4, !tbaa !21
  %17 = getelementptr inbounds nuw i8, ptr %0, i64 28
  %18 = load i32, ptr %17, align 4, !tbaa !17
  %19 = sub nsw i32 %18, %16
  store i32 %19, ptr %17, align 4, !tbaa !17
  %20 = getelementptr inbounds nuw i8, ptr %0, i64 32
  %21 = load i32, ptr %20, align 8, !tbaa !18
  %22 = sub nsw i32 %21, %16
  store i32 %22, ptr %20, align 8, !tbaa !18
  %23 = icmp sgt i32 %22, 0
  br i1 %23, label %24, label %28

24:                                               ; preds = %5
  %25 = load i8, ptr %1, align 1, !tbaa !4
  %26 = and i8 %25, 1
  %27 = zext nneg i8 %26 to i32
  br label %110

28:                                               ; preds = %5
  %29 = getelementptr inbounds nuw i8, ptr %0, i64 8
  %30 = load i32, ptr %29, align 8, !tbaa !7
  %31 = icmp ugt i32 %19, %30
  br i1 %31, label %32, label %65

32:                                               ; preds = %28
  %33 = load i8, ptr %1, align 1, !tbaa !4
  %34 = zext i8 %33 to i64
  %35 = getelementptr inbounds nuw [174 x %struct.Ladder], ptr @Ladder, i64 0, i64 %34
  %36 = load i8, ptr %35, align 4, !tbaa !22
  %37 = sext i8 %36 to i32
  %38 = add i32 %7, %37
  %39 = sext i32 %38 to i64
  br label %40

40:                                               ; preds = %40, %32
  %indvars.iv83 = phi i64 [ %indvars.iv.next84, %40 ], [ %39, %32 ]
  %41 = getelementptr inbounds i32, ptr getelementptr inbounds nuw (i8, ptr @els_exp_tab, i64 432), i64 %indvars.iv83
  %42 = load i32, ptr %41, align 4, !tbaa !21
  %43 = icmp ugt i32 %19, %42
  %indvars.iv.next84 = add nsw i64 %indvars.iv83, 1
  br i1 %43, label %40, label %44, !llvm.loop !23

44:                                               ; preds = %40
  %45 = trunc nsw i64 %indvars.iv83 to i32
  store i32 %45, ptr %6, align 8, !tbaa !16
  %46 = icmp slt i64 %indvars.iv83, 1
  br i1 %46, label %47, label %59

47:                                               ; preds = %44
  %48 = getelementptr inbounds nuw i8, ptr %0, i64 16
  %49 = load i64, ptr %48, align 8, !tbaa !14
  %.not.i = icmp eq i64 %49, 0
  br i1 %.not.i, label %els_import_byte.exit.thread, label %els_import_byte.exit

els_import_byte.exit.thread:                      ; preds = %47
  store i32 -541478725, ptr %3, align 4, !tbaa !15
  br label %110

els_import_byte.exit:                             ; preds = %47
  %50 = shl i32 %30, 8
  %51 = load ptr, ptr %0, align 8, !tbaa !13
  %52 = getelementptr inbounds nuw i8, ptr %51, i64 1
  store ptr %52, ptr %0, align 8, !tbaa !13
  %53 = load i8, ptr %51, align 1, !tbaa !4
  %54 = zext i8 %53 to i32
  %55 = or disjoint i32 %50, %54
  store i32 %55, ptr %29, align 8, !tbaa !7
  %56 = add i64 %49, -1
  store i64 %56, ptr %48, align 8, !tbaa !14
  %57 = add nsw i32 %45, 36
  store i32 %57, ptr %6, align 8, !tbaa !16
  %58 = shl i32 %19, 8
  store i32 %58, ptr %17, align 4, !tbaa !17
  br label %59

59:                                               ; preds = %els_import_byte.exit, %44
  %60 = phi i32 [ %58, %els_import_byte.exit ], [ %19, %44 ]
  %61 = load i8, ptr %1, align 1, !tbaa !4
  %62 = and i8 %61, 1
  %63 = zext i8 %61 to i64
  %64 = getelementptr inbounds nuw [174 x %struct.Ladder], ptr @Ladder, i64 0, i64 %63, i32 2
  br label %101

65:                                               ; preds = %28
  %66 = sub nuw i32 %30, %19
  store i32 %66, ptr %29, align 8, !tbaa !7
  store i32 %16, ptr %17, align 4, !tbaa !17
  %67 = load i8, ptr %1, align 1, !tbaa !4
  %68 = zext i8 %67 to i64
  %69 = getelementptr inbounds nuw [174 x %struct.Ladder], ptr @Ladder, i64 0, i64 %68, i32 1
  %70 = load i8, ptr %69, align 1, !tbaa !19
  %71 = sext i8 %70 to i32
  %72 = add nsw i32 %7, %71
  store i32 %72, ptr %6, align 8, !tbaa !16
  %73 = icmp slt i32 %72, 1
  br i1 %73, label %74, label %.loopexit

74:                                               ; preds = %65
  %75 = getelementptr inbounds nuw i8, ptr %0, i64 16
  %76 = load i64, ptr %75, align 8, !tbaa !14
  %.not.i74 = icmp eq i64 %76, 0
  br i1 %.not.i74, label %els_import_byte.exit76.thread, label %77

els_import_byte.exit76.thread:                    ; preds = %74
  store i32 -541478725, ptr %3, align 4, !tbaa !15
  br label %110

77:                                               ; preds = %74
  %78 = shl i32 %66, 8
  %79 = load ptr, ptr %0, align 8, !tbaa !13
  %80 = getelementptr inbounds nuw i8, ptr %79, i64 1
  store ptr %80, ptr %0, align 8, !tbaa !13
  %81 = load i8, ptr %79, align 1, !tbaa !4
  %82 = zext i8 %81 to i32
  %83 = or disjoint i32 %78, %82
  store i32 %83, ptr %29, align 8, !tbaa !7
  %84 = add i64 %76, -1
  store i64 %84, ptr %75, align 8, !tbaa !14
  %85 = add nsw i32 %72, 36
  store i32 %85, ptr %6, align 8, !tbaa !16
  %86 = shl i32 %16, 8
  store i32 %86, ptr %17, align 4, !tbaa !17
  %87 = icmp slt i32 %72, -35
  br i1 %87, label %88, label %.loopexit

88:                                               ; preds = %77
  %89 = shl i32 %16, 16
  %90 = tail call fastcc i32 @els_import_byte(ptr noundef nonnull %0)
  %91 = icmp slt i32 %90, 0
  br i1 %91, label %110, label %.preheader

.preheader:                                       ; preds = %88
  %.promoted = load i32, ptr %6, align 8, !tbaa !16
  %92 = sext i32 %.promoted to i64
  %gep79 = getelementptr i32, ptr getelementptr inbounds nuw (i8, ptr @els_exp_tab, i64 428), i64 %92
  %93 = load i32, ptr %gep79, align 4, !tbaa !21
  %.not7180 = icmp ult i32 %93, %89
  br i1 %.not7180, label %.loopexit, label %.lr.ph

.lr.ph:                                           ; preds = %.preheader, %.lr.ph
  %indvars.iv = phi i64 [ %indvars.iv.next, %.lr.ph ], [ %92, %.preheader ]
  %indvars.iv.next = add nsw i64 %indvars.iv, -1
  %gep = getelementptr i32, ptr getelementptr inbounds nuw (i8, ptr @els_exp_tab, i64 428), i64 %indvars.iv.next
  %94 = load i32, ptr %gep, align 4, !tbaa !21
  %.not71 = icmp ult i32 %94, %89
  br i1 %.not71, label %..loopexit_crit_edge, label %.lr.ph, !llvm.loop !25

..loopexit_crit_edge:                             ; preds = %.lr.ph
  %95 = trunc nsw i64 %indvars.iv.next to i32
  store i32 %95, ptr %6, align 8, !tbaa !16
  br label %.loopexit

.loopexit:                                        ; preds = %.preheader, %..loopexit_crit_edge, %77, %65
  %.1 = phi i32 [ %86, %77 ], [ %16, %65 ], [ %89, %..loopexit_crit_edge ], [ %89, %.preheader ]
  %96 = load i8, ptr %1, align 1, !tbaa !4
  %97 = and i8 %96, 1
  %98 = xor i8 %97, 1
  %99 = zext i8 %96 to i64
  %100 = getelementptr inbounds nuw [174 x %struct.Ladder], ptr @Ladder, i64 0, i64 %99, i32 3
  br label %101

101:                                              ; preds = %.loopexit, %59
  %storemerge.in = phi ptr [ %100, %.loopexit ], [ %64, %59 ]
  %.062 = phi i32 [ %.1, %.loopexit ], [ %60, %59 ]
  %.061.in = phi i8 [ %98, %.loopexit ], [ %62, %59 ]
  %.061 = zext nneg i8 %.061.in to i32
  %storemerge = load i8, ptr %storemerge.in, align 1, !tbaa !4
  store i8 %storemerge, ptr %1, align 1, !tbaa !4
  %102 = load i32, ptr %29, align 8, !tbaa !7
  %103 = sub i32 %.062, %102
  %104 = load i32, ptr %6, align 8, !tbaa !16
  %105 = sext i32 %104 to i64
  %106 = getelementptr i32, ptr getelementptr inbounds nuw (i8, ptr @els_exp_tab, i64 432), i64 %105
  %107 = getelementptr i8, ptr %106, i64 -4
  %108 = load i32, ptr %107, align 4, !tbaa !21
  %109 = sub i32 %.062, %108
  %. = tail call i32 @llvm.umin.i32(i32 %103, i32 %109)
  store i32 %., ptr %20, align 8, !tbaa !18
  br label %110

110:                                              ; preds = %els_import_byte.exit76.thread, %els_import_byte.exit.thread, %88, %2, %101, %24
  %.0 = phi i32 [ %27, %24 ], [ %.061, %101 ], [ 0, %2 ], [ %90, %88 ], [ -541478725, %els_import_byte.exit.thread ], [ -541478725, %els_import_byte.exit76.thread ]
  ret i32 %.0
}